target datalayout = "e-m:e-p270:32:32-p271:32:32-p272:64:64-i64:64-i128:128-f80:128-n8:16:32:64-S128"
target triple = "x86_64-pc-linux-gnu"

@.str.4 = private unnamed_addr constant [2 x i8] c"\0A\00", align 1
@.str.5 = private unnamed_addr constant [27 x i8] c"    synth_gowin [options]\0A\00", align 1
@.str.6 = private unnamed_addr constant [73 x i8] c"This command runs synthesis for Gowin FPGAs. This work is experimental.\0A\00", align 1
@.str.7 = private unnamed_addr constant [19 x i8] c"    -top <module>\0A\00", align 1
@.str.8 = private unnamed_addr constant [64 x i8] c"        use the specified module as top module (default='top')\0A\00", align 1
@.str.9 = private unnamed_addr constant [18 x i8] c"    -vout <file>\0A\00", align 1
@.str.10 = private unnamed_addr constant [79 x i8] c"        write the design to the specified Verilog netlist file. writing of an\0A\00", align 1
@.str.11 = private unnamed_addr constant [68 x i8] c"        output file is omitted if this parameter is not specified.\0A\00", align 1
@.str.12 = private unnamed_addr constant [18 x i8] c"    -json <file>\0A\00", align 1
@.str.13 = private unnamed_addr constant [76 x i8] c"        write the design to the specified JSON netlist file. writing of an\0A\00", align 1
@.str.14 = private unnamed_addr constant [67 x i8] c"        This disables features not yet supported by nexpnr-gowin.\0A\00", align 1
@.str.15 = private unnamed_addr constant [34 x i8] c"    -run <from_label>:<to_label>\0A\00", align 1
@.str.16 = private unnamed_addr constant [72 x i8] c"        only run the commands between the labels (see below). an empty\0A\00", align 1
@.str.17 = private unnamed_addr constant [68 x i8] c"        from label is synonymous to 'begin', and empty to label is\0A\00", align 1
@.str.18 = private unnamed_addr constant [52 x i8] c"        synonymous to the end of the command list.\0A\00", align 1
@.str.19 = private unnamed_addr constant [13 x i8] c"    -nodffe\0A\00", align 1
@.str.20 = private unnamed_addr constant [56 x i8] c"        do not use flipflops with CE in output netlist\0A\00", align 1
@.str.21 = private unnamed_addr constant [13 x i8] c"    -nobram\0A\00", align 1
@.str.22 = private unnamed_addr constant [49 x i8] c"        do not use BRAM cells in output netlist\0A\00", align 1
@.str.23 = private unnamed_addr constant [15 x i8] c"    -nolutram\0A\00", align 1
@.str.24 = private unnamed_addr constant [60 x i8] c"        do not use distributed RAM cells in output netlist\0A\00", align 1
@.str.25 = private unnamed_addr constant [16 x i8] c"    -noflatten\0A\00", align 1
@.str.26 = private unnamed_addr constant [48 x i8] c"        do not flatten design before synthesis\0A\00", align 1
@.str.27 = private unnamed_addr constant [13 x i8] c"    -retime\0A\00", align 1
@.str.28 = private unnamed_addr constant [44 x i8] c"        run 'abc' with '-dff -D 1' options\0A\00", align 1
@.str.29 = private unnamed_addr constant [16 x i8] c"    -nowidelut\0A\00", align 1
@.str.30 = private unnamed_addr constant [62 x i8] c"        do not use muxes to implement LUTs larger than LUT4s\0A\00", align 1
@.str.31 = private unnamed_addr constant [15 x i8] c"    -noiopads\0A\00", align 1
@.str.32 = private unnamed_addr constant [44 x i8] c"        do not emit IOB at top level ports\0A\00", align 1
@.str.33 = private unnamed_addr constant [12 x i8] c"    -noalu\0A\00", align 1
@.str.34 = private unnamed_addr constant [30 x i8] c"        do not use ALU cells\0A\00", align 1
@.str.35 = private unnamed_addr constant [13 x i8] c"    -noabc9\0A\00", align 1
@.str.36 = private unnamed_addr constant [38 x i8] c"        disable use of new ABC9 flow\0A\00", align 1
@.str.37 = private unnamed_addr constant [18 x i8] c"    -no-rw-check\0A\00", align 1
@.str.38 = private unnamed_addr constant [72 x i8] c"        marks all recognized read ports as \22return don't-care value on\0A\00", align 1
@.str.39 = private unnamed_addr constant [71 x i8] c"        read/write collision\22 (same result as setting the no_rw_check\0A\00", align 1
@.str.40 = private unnamed_addr constant [37 x i8] c"        attribute on all memories).\0A\00", align 1
@.str.41 = private unnamed_addr constant [22 x i8] c"    -family <family>\0A\00", align 1
@.str.42 = private unnamed_addr constant [78 x i8] c"        sets the gowin family to the specified value. The default is 'gw1n'.\0A\00", align 1
@.str.43 = private unnamed_addr constant [43 x i8] c"\09\09  The following families are supported:\0A\00", align 1
@.str.44 = private unnamed_addr constant [33 x i8] c"        'gw1n', 'gw2a', 'gw5a'.\0A\00", align 1
@.str.45 = private unnamed_addr constant [64 x i8] c"The following commands are executed by this synthesis command:\0A\00", align 1

; Function Attrs: mustprogress uwtable
define internal void @_ZN12_GLOBAL__N_114SynthGowinPass4helpEv(ptr noundef nonnull align 8 dereferenceable(322) %0) unnamed_addr #4 align 2 {
  %2 = alloca ptr, align 8
  store ptr %0, ptr %2, align 8, !tbaa !6
  %3 = load ptr, ptr %2, align 8
  call void (ptr, ...) @_ZN5Yosys3logEPKcz(ptr noundef @.str.4)
  call void (ptr, ...) @_ZN5Yosys3logEPKcz(ptr noundef @.str.5)
  call void (ptr, ...) @_ZN5Yosys3logEPKcz(ptr noundef @.str.4)
  call void (ptr, ...) @_ZN5Yosys3logEPKcz(ptr noundef @.str.6)
  call void (ptr, ...) @_ZN5Yosys3logEPKcz(ptr noundef @.str.4)
  call void (ptr, ...) @_ZN5Yosys3logEPKcz(ptr noundef @.str.7)
  call void (ptr, ...) @_ZN5Yosys3logEPKcz(ptr noundef @.str.8)
  call void (ptr, ...) @_ZN5Yosys3logEPKcz(ptr noundef @.str.4)
  call void (ptr, ...) @_ZN5Yosys3logEPKcz(ptr noundef @.str.9)
  call void (ptr, ...) @_ZN5Yosys3logEPKcz(ptr noundef @.str.10)
  call void (ptr, ...) @_ZN5Yosys3logEPKcz(ptr noundef @.str.11)
  call void (ptr, ...) @_ZN5Yosys3logEPKcz(ptr noundef @.str.4)
  call void (ptr, ...) @_ZN5Yosys3logEPKcz(ptr noundef @.str.12)
  call void (ptr, ...) @_ZN5Yosys3logEPKcz(ptr noundef @.str.13)
  call void (ptr, ...) @_ZN5Yosys3logEPKcz(ptr noundef @.str.11)
  call void (ptr, ...) @_ZN5Yosys3logEPKcz(ptr noundef @.str.14)
  call void (ptr, ...) @_ZN5Yosys3logEPKcz(ptr noundef @.str.4)
  call void (ptr, ...) @_ZN5Yosys3logEPKcz(ptr noundef @.str.15)
  call void (ptr, ...) @_ZN5Yosys3logEPKcz(ptr noundef @.str.16)
  call void (ptr, ...) @_ZN5Yosys3logEPKcz(ptr noundef @.str.17)
  call void (ptr, ...) @_ZN5Yosys3logEPKcz(ptr noundef @.str.18)
  call void (ptr, ...) @_ZN5Yosys3logEPKcz(ptr noundef @.str.4)
  call void (ptr, ...) @_ZN5Yosys3logEPKcz(ptr noundef @.str.19)
  call void (ptr, ...) @_ZN5Yosys3logEPKcz(ptr noundef @.str.20)
  call void (ptr, ...) @_ZN5Yosys3logEPKcz(ptr noundef @.str.4)
  call void (ptr, ...) @_ZN5Yosys3logEPKcz(ptr noundef @.str.21)
  call void (ptr, ...) @_ZN5Yosys3logEPKcz(ptr noundef @.str.22)
  call void (ptr, ...) @_ZN5Yosys3logEPKcz(ptr noundef @.str.4)
  call void (ptr, ...) @_ZN5Yosys3logEPKcz(ptr noundef @.str.23)
  call void (ptr, ...) @_ZN5Yosys3logEPKcz(ptr noundef @.str.24)
  call void (ptr, ...) @_ZN5Yosys3logEPKcz(ptr noundef @.str.4)
  call void (ptr, ...) @_ZN5Yosys3logEPKcz(ptr noundef @.str.25)
  call void (ptr, ...) @_ZN5Yosys3logEPKcz(ptr noundef @.str.26)
  call void (ptr, ...) @_ZN5Yosys3logEPKcz(ptr noundef @.str.4)
  call void (ptr, ...) @_ZN5Yosys3logEPKcz(ptr noundef @.str.27)
  call void (ptr, ...) @_ZN5Yosys3logEPKcz(ptr noundef @.str.28)
  call void (ptr, ...) @_ZN5Yosys3logEPKcz(ptr noundef @.str.4)
  call void (ptr, ...) @_ZN5Yosys3logEPKcz(ptr noundef @.str.29)
  call void (ptr, ...) @_ZN5Yosys3logEPKcz(ptr noundef @.str.30)
  call void (ptr, ...) @_ZN5Yosys3logEPKcz(ptr noundef @.str.4)
  call void (ptr, ...) @_ZN5Yosys3logEPKcz(ptr noundef @.str.31)
  call void (ptr, ...) @_ZN5Yosys3logEPKcz(ptr noundef @.str.32)
  call void (ptr, ...) @_ZN5Yosys3logEPKcz(ptr noundef @.str.4)
  call void (ptr, ...) @_ZN5Yosys3logEPKcz(ptr noundef @.str.33)
  call void (ptr, ...) @_ZN5Yosys3logEPKcz(ptr noundef @.str.34)
  call void (ptr, ...) @_ZN5Yosys3logEPKcz(ptr noundef @.str.4)
  call void (ptr, ...) @_ZN5Yosys3logEPKcz(ptr noundef @.str.35)
  call void (ptr, ...) @_ZN5Yosys3logEPKcz(ptr noundef @.str.36)
  call void (ptr, ...) @_ZN5Yosys3logEPKcz(ptr noundef @.str.4)
  call void (ptr, ...) @_ZN5Yosys3logEPKcz(ptr noundef @.str.37)
  call void (ptr, ...) @_ZN5Yosys3logEPKcz(ptr noundef @.str.38)
  call void (ptr, ...) @_ZN5Yosys3logEPKcz(ptr noundef @.str.39)
  call void (ptr, ...) @_ZN5Yosys3logEPKcz(ptr noundef @.str.40)
  call void (ptr, ...) @_ZN5Yosys3logEPKcz(ptr noundef @.str.4)
  call void (ptr, ...) @_ZN5Yosys3logEPKcz(ptr noundef @.str.41)
  call void (ptr, ...) @_ZN5Yosys3logEPKcz(ptr noundef @.str.42)
  call void (ptr, ...) @_ZN5Yosys3logEPKcz(ptr noundef @.str.43)
  call void (ptr, ...) @_ZN5Yosys3logEPKcz(ptr noundef @.str.44)
  call void (ptr, ...) @_ZN5Yosys3logEPKcz(ptr noundef @.str.4)
  call void (ptr, ...) @_ZN5Yosys3logEPKcz(ptr noundef @.str.45)
  call void @_ZN5Yosys10ScriptPass11help_scriptEv(ptr noundef nonnull align 8 dereferenceable(184) %3)
  call void (ptr, ...) @_ZN5Yosys3logEPKcz(ptr noundef @.str.4)
  ret void
}